; Function Attrs: nofree norecurse nosync nounwind memory(argmem: readwrite) uwtable
define internal void @h264_v_loop_filter_chroma_8_c(ptr noundef captures(none) %0, i64 noundef %1, i32 noundef %2, i32 noundef %3, ptr noundef readonly captures(none) %4) #1 {
  %6 = sub nsw i64 0, %1
  %7 = mul nsw i64 %1, -2
  br label %8

8:                                                ; preds = %5, %.loopexit
  %indvars.iv = phi i64 [ 0, %5 ], [ %indvars.iv.next, %.loopexit ]
  %.0.i7 = phi ptr [ %0, %5 ], [ %.1.i, %.loopexit ]
  %9 = getelementptr inbounds nuw i8, ptr %4, i64 %indvars.iv
  %10 = load i8, ptr %9, align 1, !tbaa !42
  %11 = sext i8 %10 to i32
  %12 = icmp slt i8 %10, 1
  br i1 %12, label %14, label %.preheader

.preheader:                                       ; preds = %8
  %13 = sub nsw i32 0, %11
  br label %16

14:                                               ; preds = %8
  %15 = getelementptr inbounds nuw i8, ptr %.0.i7, i64 2
  br label %.loopexit

16:                                               ; preds = %.preheader, %54
  %.2.i5 = phi ptr [ %.0.i7, %.preheader ], [ %55, %54 ]
  %17 = phi i1 [ true, %.preheader ], [ false, %54 ]
  %18 = getelementptr inbounds i8, ptr %.2.i5, i64 %6
  %19 = load i8, ptr %18, align 1, !tbaa !42
  %20 = zext i8 %19 to i32
  %21 = getelementptr inbounds i8, ptr %.2.i5, i64 %7
  %22 = load i8, ptr %21, align 1, !tbaa !42
  %23 = zext i8 %22 to i32
  %24 = load i8, ptr %.2.i5, align 1, !tbaa !42
  %25 = zext i8 %24 to i32
  %26 = getelementptr inbounds i8, ptr %.2.i5, i64 %1
  %27 = load i8, ptr %26, align 1, !tbaa !42
  %28 = zext i8 %27 to i32
  %29 = sub nsw i32 %20, %25
  %30 = tail call i32 @llvm.abs.i32(i32 %29, i1 true)
  %31 = icmp slt i32 %30, %2
  br i1 %31, label %32, label %54

32:                                               ; preds = %16
  %33 = sub nsw i32 %23, %20
  %34 = tail call i32 @llvm.abs.i32(i32 %33, i1 true)
  %35 = icmp slt i32 %34, %3
  br i1 %35, label %36, label %54

36:                                               ; preds = %32
  %37 = sub nsw i32 %28, %25
  %38 = tail call i32 @llvm.abs.i32(i32 %37, i1 true)
  %39 = icmp samesign ult i32 %38, %3
  br i1 %39, label %40, label %54

40:                                               ; preds = %36
  %41 = sub nsw i32 %25, %20
  %42 = shl nsw i32 %41, 2
  %43 = add nuw nsw i32 %23, 4
  %44 = sub nsw i32 %43, %28
  %45 = add nsw i32 %44, %42
  %46 = ashr i32 %45, 3
  %47 = icmp slt i32 %46, %13
  %..i.i = tail call i32 @llvm.smin.i32(i32 %46, i32 %11)
  %.0.i.i = select i1 %47, i32 %13, i32 %..i.i
  %48 = add nsw i32 %.0.i.i, %20
  %.not.i69.i = icmp ult i32 %48, 256
  %isnotneg.i70.i = icmp sgt i32 %48, -1
  %49 = sext i1 %isnotneg.i70.i to i8
  %50 = trunc nuw i32 %48 to i8
  %.0.i71.i = select i1 %.not.i69.i, i8 %50, i8 %49
  store i8 %.0.i71.i, ptr %18, align 1, !tbaa !42
  %51 = sub nsw i32 %25, %.0.i.i
  %.not.i.i = icmp ult i32 %51, 256
  %isnotneg.i.i = icmp sgt i32 %51, -1
  %52 = sext i1 %isnotneg.i.i to i8
  %53 = trunc nuw i32 %51 to i8
  %.0.i68.i = select i1 %.not.i.i, i8 %53, i8 %52
  store i8 %.0.i68.i, ptr %.2.i5, align 1, !tbaa !42
  br label %54

54:                                               ; preds = %40, %36, %32, %16
  %55 = getelementptr inbounds nuw i8, ptr %.2.i5, i64 1
  br i1 %17, label %16, label %.loopexit, !llvm.loop !112

.loopexit:                                        ; preds = %54, %14
  %.1.i = phi ptr [ %15, %14 ], [ %55, %54 ]
  %indvars.iv.next = add nuw nsw i64 %indvars.iv, 1
  %exitcond.not = icmp eq i64 %indvars.iv.next, 4
  br i1 %exitcond.not, label %h264_loop_filter_chroma_8_c.exit, label %8, !llvm.loop !113

h264_loop_filter_chroma_8_c.exit:                 ; preds = %.loopexit
  ret void
}